; Function Attrs: nounwind uwtable
define dso_local void @cost_tidrangescan(ptr noundef captures(none) initializes((40, 48)) %0, ptr noundef %1, ptr noundef readonly captures(none) %2, ptr noundef %3, ptr noundef readonly captures(address_is_null) %4) local_unnamed_addr #2 {
  %6 = alloca %struct.cost_qual_eval_context, align 8
  %7 = alloca %struct.cost_qual_eval_context, align 8
  %8 = alloca double, align 8
  %9 = alloca double, align 8
  call void @llvm.lifetime.start.p0(i64 8, ptr nonnull %8) #17
  call void @llvm.lifetime.start.p0(i64 8, ptr nonnull %9) #17
  %.not = icmp eq ptr %4, null
  %spec.select = select i1 %.not, ptr %2, ptr %4
  %.sink.in = getelementptr inbounds nuw i8, ptr %spec.select, i64 16
  %.sink = load double, ptr %.sink.in, align 8
  %10 = getelementptr inbounds nuw i8, ptr %0, i64 40
  store double %.sink, ptr %10, align 8
  %11 = getelementptr inbounds nuw i8, ptr %2, i64 112
  %12 = load i32, ptr %11, align 8
  %13 = tail call double @clauselist_selectivity(ptr noundef %1, ptr noundef %3, i32 noundef %12, i32 noundef 0, ptr noundef null) #17
  %14 = getelementptr inbounds nuw i8, ptr %2, i64 192
  %15 = load i32, ptr %14, align 8
  %16 = getelementptr inbounds nuw i8, ptr %2, i64 200
  %17 = load double, ptr %16, align 8
  call void @llvm.lifetime.start.p0(i64 24, ptr nonnull %7) #17
  store ptr %1, ptr %7, align 8
  %18 = getelementptr inbounds nuw i8, ptr %7, i64 8
  %19 = getelementptr inbounds nuw i8, ptr %3, i64 4
  %.not.i = icmp eq ptr %3, null
  call void @llvm.memset.p0.i64(ptr noundef nonnull align 8 dereferenceable(16) %18, i8 0, i64 16, i1 false)
  br i1 %.not.i, label %cost_qual_eval.exit, label %.lr.ph.i

.lr.ph.i:                                         ; preds = %5
  %20 = getelementptr inbounds nuw i8, ptr %3, i64 16
  %21 = load i32, ptr %19, align 4
  %22 = icmp sgt i32 %21, 0
  br i1 %22, label %.lr.ph16.i, label %cost_qual_eval.exit

.lr.ph16.i:                                       ; preds = %.lr.ph.i, %.lr.ph16.i
  %indvars.iv.i = phi i64 [ %indvars.iv.next.i, %.lr.ph16.i ], [ 0, %.lr.ph.i ]
  %23 = load ptr, ptr %20, align 8
  %24 = getelementptr inbounds nuw %union.ListCell, ptr %23, i64 %indvars.iv.i
  %25 = load ptr, ptr %24, align 8
  %26 = call zeroext i1 @cost_qual_eval_walker(ptr noundef %25, ptr noundef nonnull %7)
  %indvars.iv.next.i = add nuw nsw i64 %indvars.iv.i, 1
  %27 = load i32, ptr %19, align 4
  %28 = sext i32 %27 to i64
  %29 = icmp slt i64 %indvars.iv.next.i, %28
  br i1 %29, label %.lr.ph16.i, label %cost_qual_eval.exit.loopexit

cost_qual_eval.exit.loopexit:                     ; preds = %.lr.ph16.i
  %.sroa.3.0..sroa_idx.phi.trans.insert = getelementptr inbounds nuw i8, ptr %7, i64 16
  %.sroa.3.0.copyload.pre = load double, ptr %.sroa.3.0..sroa_idx.phi.trans.insert, align 8
  br label %cost_qual_eval.exit

cost_qual_eval.exit:                              ; preds = %cost_qual_eval.exit.loopexit, %5, %.lr.ph.i
  %.sroa.3.0.copyload = phi double [ %.sroa.3.0.copyload.pre, %cost_qual_eval.exit.loopexit ], [ 0.000000e+00, %5 ], [ 0.000000e+00, %.lr.ph.i ]
  call void @llvm.lifetime.end.p0(i64 24, ptr nonnull %7) #17
  %30 = getelementptr inbounds nuw i8, ptr %2, i64 116
  %31 = load i32, ptr %30, align 4
  call void @get_tablespace_page_costs(i32 noundef %31, ptr noundef nonnull %8, ptr noundef nonnull %9) #17
  %32 = load double, ptr %8, align 8
  %33 = load double, ptr %9, align 8
  br i1 %.not, label %55, label %34

34:                                               ; preds = %cost_qual_eval.exit
  %35 = getelementptr inbounds nuw i8, ptr %4, i64 24
  %36 = load ptr, ptr %35, align 8
  call void @llvm.lifetime.start.p0(i64 24, ptr nonnull %6) #17
  store ptr %1, ptr %6, align 8
  %37 = getelementptr inbounds nuw i8, ptr %6, i64 8
  %38 = getelementptr inbounds nuw i8, ptr %36, i64 4
  %.not.i.i = icmp eq ptr %36, null
  call void @llvm.memset.p0.i64(ptr noundef nonnull align 8 dereferenceable(16) %37, i8 0, i64 16, i1 false)
  br i1 %.not.i.i, label %cost_qual_eval.exit.i, label %.lr.ph.i.i

.lr.ph.i.i:                                       ; preds = %34
  %39 = getelementptr inbounds nuw i8, ptr %36, i64 16
  %40 = load i32, ptr %38, align 4
  %41 = icmp sgt i32 %40, 0
  br i1 %41, label %.lr.ph16.i.i, label %cost_qual_eval.exit.i

.lr.ph16.i.i:                                     ; preds = %.lr.ph.i.i, %.lr.ph16.i.i
  %indvars.iv.i.i = phi i64 [ %indvars.iv.next.i.i, %.lr.ph16.i.i ], [ 0, %.lr.ph.i.i ]
  %42 = load ptr, ptr %39, align 8
  %43 = getelementptr inbounds nuw %union.ListCell, ptr %42, i64 %indvars.iv.i.i
  %44 = load ptr, ptr %43, align 8
  %45 = call zeroext i1 @cost_qual_eval_walker(ptr noundef %44, ptr noundef nonnull %6)
  %indvars.iv.next.i.i = add nuw nsw i64 %indvars.iv.i.i, 1
  %46 = load i32, ptr %38, align 4
  %47 = sext i32 %46 to i64
  %48 = icmp slt i64 %indvars.iv.next.i.i, %47
  br i1 %48, label %.lr.ph16.i.i, label %cost_qual_eval.exit.i.loopexit

cost_qual_eval.exit.i.loopexit:                   ; preds = %.lr.ph16.i.i
  %.sroa.040.0.copyload.pre = load double, ptr %37, align 8
  %.sroa.7.0..sroa_idx.phi.trans.insert = getelementptr inbounds nuw i8, ptr %6, i64 16
  %.sroa.7.0.copyload.pre = load double, ptr %.sroa.7.0..sroa_idx.phi.trans.insert, align 8
  br label %cost_qual_eval.exit.i

cost_qual_eval.exit.i:                            ; preds = %cost_qual_eval.exit.i.loopexit, %.lr.ph.i.i, %34
  %.sroa.7.0.copyload = phi double [ %.sroa.7.0.copyload.pre, %cost_qual_eval.exit.i.loopexit ], [ 0.000000e+00, %.lr.ph.i.i ], [ 0.000000e+00, %34 ]
  %.sroa.040.0.copyload = phi double [ %.sroa.040.0.copyload.pre, %cost_qual_eval.exit.i.loopexit ], [ 0.000000e+00, %.lr.ph.i.i ], [ 0.000000e+00, %34 ]
  call void @llvm.lifetime.end.p0(i64 24, ptr nonnull %6) #17
  %49 = getelementptr inbounds nuw i8, ptr %2, i64 304
  %50 = load double, ptr %49, align 8
  %51 = fadd double %.sroa.040.0.copyload, %50
  %52 = getelementptr inbounds nuw i8, ptr %2, i64 312
  %53 = load double, ptr %52, align 8
  %54 = fadd double %.sroa.7.0.copyload, %53
  br label %get_restriction_qual_cost.exit

55:                                               ; preds = %cost_qual_eval.exit
  %56 = getelementptr inbounds nuw i8, ptr %2, i64 304
  %.sroa.040.0.copyload42 = load double, ptr %56, align 8
  %.sroa.7.0..sroa_idx43 = getelementptr inbounds nuw i8, ptr %2, i64 312
  %.sroa.7.0.copyload44 = load double, ptr %.sroa.7.0..sroa_idx43, align 8
  br label %get_restriction_qual_cost.exit

get_restriction_qual_cost.exit:                   ; preds = %cost_qual_eval.exit.i, %55
  %.sroa.040.0 = phi double [ %.sroa.040.0.copyload42, %55 ], [ %51, %cost_qual_eval.exit.i ]
  %.sroa.7.0 = phi double [ %.sroa.7.0.copyload44, %55 ], [ %54, %cost_qual_eval.exit.i ]
  %57 = uitofp i32 %15 to double
  %58 = fmul double %13, %57
  %59 = call double @llvm.ceil.f64(double %58)
  %60 = fcmp ugt double %59, 0.000000e+00
  %61 = fadd double %59, -1.000000e+00
  %62 = select i1 %60, double %61, double 0.000000e+00
  %63 = call double @llvm.fmuladd.f64(double %33, double %62, double %32)
  %64 = fadd double %63, 0.000000e+00
  %65 = fmul double %13, %17
  %66 = fadd double %.sroa.3.0.copyload, %.sroa.040.0
  %67 = fadd double %66, 0.000000e+00
  %68 = load double, ptr @cpu_tuple_cost, align 8
  %69 = fadd double %.sroa.7.0, %68
  %70 = fsub double %69, %.sroa.3.0.copyload
  %71 = call double @llvm.fmuladd.f64(double %70, double %65, double %64)
  %72 = getelementptr inbounds nuw i8, ptr %0, i64 16
  %73 = load ptr, ptr %72, align 8
  %74 = getelementptr inbounds nuw i8, ptr %73, i64 24
  %75 = load double, ptr %74, align 8
  %76 = fadd double %67, %75
  %77 = getelementptr inbounds nuw i8, ptr %73, i64 32
  %78 = load double, ptr %77, align 8
  %79 = load double, ptr %10, align 8
  %80 = call double @llvm.fmuladd.f64(double %78, double %79, double %71)
  %81 = getelementptr inbounds nuw i8, ptr %0, i64 48
  store i32 0, ptr %81, align 8
  %82 = getelementptr inbounds nuw i8, ptr %0, i64 56
  store double %76, ptr %82, align 8
  %83 = fadd double %76, %80
  %84 = getelementptr inbounds nuw i8, ptr %0, i64 64
  store double %83, ptr %84, align 8
  call void @llvm.lifetime.end.p0(i64 8, ptr nonnull %9) #17
  call void @llvm.lifetime.end.p0(i64 8, ptr nonnull %8) #17
  ret void
}